---
triple:          'arm64-apple-darwin'
binary-path:     '/Users/alexis/Cranfield/HPC/Assignment/Source Code/sparseMatrixVectorMult'
relocations:
  - { offsetInCU: 0x5278, offset: 0x5278, size: 0x8, addend: 0x0, symName: __ZNSt3__124__put_character_sequenceB7v160006IcNS_11char_traitsIcEEEERNS_13basic_ostreamIT_T0_EES7_PKS4_m, symObjAddr: 0x35D8, symBinAddr: 0x100006CB8, symSize: 0x1EC }
  - { offsetInCU: 0x6DF0, offset: 0x6DF0, size: 0x8, addend: 0x0, symName: __ZNSt3__1neB7v160006IPdEEbRKNS_11__wrap_iterIT_EES6_, symObjAddr: 0x5E8, symBinAddr: 0x100003CC8, symSize: 0x34 }
  - { offsetInCU: 0x6E33, offset: 0x6E33, size: 0x8, addend: 0x0, symName: __ZNSt3__1lsB7v160006INS_11char_traitsIcEEEERNS_13basic_ostreamIcT_EES6_PKc, symObjAddr: 0x634, symBinAddr: 0x100003D14, symSize: 0x48 }
  - { offsetInCU: 0x6E79, offset: 0x6E79, size: 0x8, addend: 0x0, symName: __ZNSt3__1eqB7v160006IPdEEbRKNS_11__wrap_iterIT_EES6_, symObjAddr: 0x6C8, symBinAddr: 0x100003DA8, symSize: 0x48 }
  - { offsetInCU: 0x6EBC, offset: 0x6EBC, size: 0x8, addend: 0x0, symName: __ZNSt3__122__make_exception_guardB7v160006INS_6vectorIdNS_9allocatorIdEEE16__destroy_vectorEEENS_28__exception_guard_exceptionsIT_EES7_, symObjAddr: 0x84C, symBinAddr: 0x100003F2C, symSize: 0x40 }
  - { offsetInCU: 0x6EF1, offset: 0x6EF1, size: 0x8, addend: 0x0, symName: __ZNSt3__119__debug_db_insert_cB7v160006INS_6vectorIdNS_9allocatorIdEEEEEEvPT_, symObjAddr: 0x8C0, symBinAddr: 0x100003FA0, symSize: 0x10 }
  - { offsetInCU: 0x6F22, offset: 0x6F22, size: 0x8, addend: 0x0, symName: __ZNSt3__119__allocate_at_leastB7v160006INS_9allocatorIdEEEENS_19__allocation_resultINS_16allocator_traitsIT_E7pointerEEERS5_m, symObjAddr: 0xC50, symBinAddr: 0x100004330, symSize: 0x40 }
  - { offsetInCU: 0x6F65, offset: 0x6F65, size: 0x8, addend: 0x0, symName: __ZNSt3__13minB7v160006ImEERKT_S3_S3_, symObjAddr: 0xD8C, symBinAddr: 0x10000446C, symSize: 0x2C }
  - { offsetInCU: 0x7192, offset: 0x7192, size: 0x8, addend: 0x0, symName: __ZNSt3__13minB7v160006ImNS_6__lessImmEEEERKT_S5_S5_T0_, symObjAddr: 0xE24, symBinAddr: 0x100004504, symSize: 0x54 }
  - { offsetInCU: 0x7227, offset: 0x7227, size: 0x8, addend: 0x0, symName: __ZNSt3__120__throw_length_errorB7v160006EPKc, symObjAddr: 0xF00, symBinAddr: 0x1000045E0, symSize: 0x64 }
  - { offsetInCU: 0x724F, offset: 0x724F, size: 0x8, addend: 0x0, symName: __ZNSt3__117__libcpp_allocateB7v160006Emm, symObjAddr: 0x1070, symBinAddr: 0x100004750, symSize: 0x60 }
  - { offsetInCU: 0x72A9, offset: 0x72A9, size: 0x8, addend: 0x0, symName: __ZNSt3__124__is_overaligned_for_newB7v160006Em, symObjAddr: 0x10D0, symBinAddr: 0x1000047B0, symSize: 0x20 }
  - { offsetInCU: 0x72D7, offset: 0x72D7, size: 0x8, addend: 0x0, symName: __ZNSt3__121__libcpp_operator_newB7v160006IJmSt11align_val_tEEEPvDpT_, symObjAddr: 0x10F0, symBinAddr: 0x1000047D0, symSize: 0x2C }
  - { offsetInCU: 0x7324, offset: 0x7324, size: 0x8, addend: 0x0, symName: __ZNSt3__121__libcpp_operator_newB7v160006IJmEEEPvDpT_, symObjAddr: 0x111C, symBinAddr: 0x1000047FC, symSize: 0x24 }
  - { offsetInCU: 0x735D, offset: 0x735D, size: 0x8, addend: 0x0, symName: __ZNSt3__112__to_addressB7v160006IdEEPT_S2_, symObjAddr: 0x1238, symBinAddr: 0x100004918, symSize: 0x14 }
  - { offsetInCU: 0x7392, offset: 0x7392, size: 0x8, addend: 0x0, symName: __ZNSt3__118__debug_db_erase_cB7v160006INS_6vectorIdNS_9allocatorIdEEEEEEvPT_, symObjAddr: 0x1578, symBinAddr: 0x100004C58, symSize: 0x10 }
  - { offsetInCU: 0x73C3, offset: 0x73C3, size: 0x8, addend: 0x0, symName: __ZNSt3__119__libcpp_deallocateB7v160006EPvmm, symObjAddr: 0x1718, symBinAddr: 0x100004DF8, symSize: 0x60 }
  - { offsetInCU: 0x7428, offset: 0x7428, size: 0x8, addend: 0x0, symName: __ZNSt3__127__do_deallocate_handle_sizeB7v160006IJSt11align_val_tEEEvPvmDpT_, symObjAddr: 0x1778, symBinAddr: 0x100004E58, symSize: 0x30 }
  - { offsetInCU: 0x747B, offset: 0x747B, size: 0x8, addend: 0x0, symName: __ZNSt3__127__do_deallocate_handle_sizeB7v160006IJEEEvPvmDpT_, symObjAddr: 0x17A8, symBinAddr: 0x100004E88, symSize: 0x28 }
  - { offsetInCU: 0x74B9, offset: 0x74B9, size: 0x8, addend: 0x0, symName: __ZNSt3__124__libcpp_operator_deleteB7v160006IJPvSt11align_val_tEEEvDpT_, symObjAddr: 0x17D0, symBinAddr: 0x100004EB0, symSize: 0x2C }
  - { offsetInCU: 0x7502, offset: 0x7502, size: 0x8, addend: 0x0, symName: __ZNSt3__124__libcpp_operator_deleteB7v160006IJPvEEEvDpT_, symObjAddr: 0x17FC, symBinAddr: 0x100004EDC, symSize: 0x24 }
  - { offsetInCU: 0x7537, offset: 0x7537, size: 0x8, addend: 0x0, symName: __ZNSt3__130__uninitialized_allocator_copyB7v160006INS_9allocatorIdEEddLPv0EEEPT0_RT_PKS4_S9_S5_, symObjAddr: 0x1A68, symBinAddr: 0x100005148, symSize: 0x38 }
  - { offsetInCU: 0x75AF, offset: 0x75AF, size: 0x8, addend: 0x0, symName: __ZNSt3__14copyB7v160006IPKdPdEET0_T_S5_S4_, symObjAddr: 0x1AA0, symBinAddr: 0x100005180, symSize: 0x40 }
  - { offsetInCU: 0x7609, offset: 0x7609, size: 0x8, addend: 0x0, symName: __ZNSt3__16__copyB7v160006INS_17_ClassicAlgPolicyEPKdS3_PdEENS_4pairIT0_T2_EES6_T1_S7_, symObjAddr: 0x1AE0, symBinAddr: 0x1000051C0, symSize: 0x44 }
  - { offsetInCU: 0x7675, offset: 0x7675, size: 0x8, addend: 0x0, symName: __ZNSt3__123__dispatch_copy_or_moveB7v160006INS_17_ClassicAlgPolicyENS_11__copy_loopIS1_EENS_14__copy_trivialEPKdS6_PdEENS_4pairIT2_T4_EES9_T3_SA_, symObjAddr: 0x1B24, symBinAddr: 0x100005204, symSize: 0x44 }
  - { offsetInCU: 0x76F3, offset: 0x76F3, size: 0x8, addend: 0x0, symName: __ZNSt3__121__unwrap_and_dispatchB7v160006INS_10__overloadINS_11__copy_loopINS_17_ClassicAlgPolicyEEENS_14__copy_trivialEEEPKdS8_PdLi0EEENS_4pairIT0_T2_EESB_T1_SC_, symObjAddr: 0x1B68, symBinAddr: 0x100005248, symSize: 0xB4 }
  - { offsetInCU: 0x7781, offset: 0x7781, size: 0x8, addend: 0x0, symName: __ZNSt3__114__unwrap_rangeB7v160006IPKdS2_EENS_4pairIT0_S4_EET_S6_, symObjAddr: 0x1C1C, symBinAddr: 0x1000052FC, symSize: 0x60 }
  - { offsetInCU: 0x7952, offset: 0x7952, size: 0x8, addend: 0x0, symName: __ZNSt3__113__unwrap_iterB7v160006IPdNS_18__unwrap_iter_implIS1_Lb1EEELi0EEEDTclsrT0_8__unwrapclsr3stdE7declvalIT_EEEES5_, symObjAddr: 0x1CC4, symBinAddr: 0x1000053A4, symSize: 0x24 }
  - { offsetInCU: 0x7996, offset: 0x7996, size: 0x8, addend: 0x0, symName: __ZNSt3__19make_pairB7v160006IPKdPdEENS_4pairINS_18__unwrap_ref_decayIT_E4typeENS5_IT0_E4typeEEEOS6_OS9_, symObjAddr: 0x1CE8, symBinAddr: 0x1000053C8, symSize: 0x38 }
  - { offsetInCU: 0x79E5, offset: 0x79E5, size: 0x8, addend: 0x0, symName: __ZNSt3__114__rewrap_rangeB7v160006IPKdS2_EET_S3_T0_, symObjAddr: 0x1D20, symBinAddr: 0x100005400, symSize: 0x2C }
  - { offsetInCU: 0x7A31, offset: 0x7A31, size: 0x8, addend: 0x0, symName: __ZNSt3__113__rewrap_iterB7v160006IPdS1_NS_18__unwrap_iter_implIS1_Lb1EEEEET_S4_T0_, symObjAddr: 0x1D4C, symBinAddr: 0x10000542C, symSize: 0x3C }
  - { offsetInCU: 0x7A86, offset: 0x7A86, size: 0x8, addend: 0x0, symName: __ZNSt3__19make_pairB7v160006IPKdS2_EENS_4pairINS_18__unwrap_ref_decayIT_E4typeENS4_IT0_E4typeEEEOS5_OS8_, symObjAddr: 0x1D88, symBinAddr: 0x100005468, symSize: 0x38 }
  - { offsetInCU: 0x7AD5, offset: 0x7AD5, size: 0x8, addend: 0x0, symName: __ZNSt3__113__unwrap_iterB7v160006IPKdNS_18__unwrap_iter_implIS2_Lb1EEELi0EEEDTclsrT0_8__unwrapclsr3stdE7declvalIT_EEEES6_, symObjAddr: 0x1DC0, symBinAddr: 0x1000054A0, symSize: 0x24 }
  - { offsetInCU: 0x7C40, offset: 0x7C40, size: 0x8, addend: 0x0, symName: __ZNSt3__112__to_addressB7v160006IKdEEPT_S3_, symObjAddr: 0x1E78, symBinAddr: 0x100005558, symSize: 0x14 }
  - { offsetInCU: 0x7C75, offset: 0x7C75, size: 0x8, addend: 0x0, symName: __ZNSt3__119__copy_trivial_implB7v160006IKddEENS_4pairIPT_PT0_EES4_S4_S6_, symObjAddr: 0x1E8C, symBinAddr: 0x10000556C, symSize: 0x84 }
  - { offsetInCU: 0x7CDD, offset: 0x7CDD, size: 0x8, addend: 0x0, symName: __ZNSt3__19make_pairB7v160006IRPKdPdEENS_4pairINS_18__unwrap_ref_decayIT_E4typeENS6_IT0_E4typeEEEOS7_OSA_, symObjAddr: 0x1F10, symBinAddr: 0x1000055F0, symSize: 0x38 }
  - { offsetInCU: 0x7D7F, offset: 0x7D7F, size: 0x8, addend: 0x0, symName: __ZNSt3__113__rewrap_iterB7v160006IPKdS2_NS_18__unwrap_iter_implIS2_Lb1EEEEET_S5_T0_, symObjAddr: 0x204C, symBinAddr: 0x10000572C, symSize: 0x3C }
  - { offsetInCU: 0x7DD4, offset: 0x7DD4, size: 0x8, addend: 0x0, symName: __ZNSt3__122__make_exception_guardB7v160006INS_6vectorIiNS_9allocatorIiEEE16__destroy_vectorEEENS_28__exception_guard_exceptionsIT_EES7_, symObjAddr: 0x2288, symBinAddr: 0x100005968, symSize: 0x40 }
  - { offsetInCU: 0x7E09, offset: 0x7E09, size: 0x8, addend: 0x0, symName: __ZNSt3__119__debug_db_insert_cB7v160006INS_6vectorIiNS_9allocatorIiEEEEEEvPT_, symObjAddr: 0x22FC, symBinAddr: 0x1000059DC, symSize: 0x10 }
  - { offsetInCU: 0x7E3A, offset: 0x7E3A, size: 0x8, addend: 0x0, symName: __ZNSt3__119__allocate_at_leastB7v160006INS_9allocatorIiEEEENS_19__allocation_resultINS_16allocator_traitsIT_E7pointerEEERS5_m, symObjAddr: 0x2698, symBinAddr: 0x100005D78, symSize: 0x40 }
  - { offsetInCU: 0x7E7D, offset: 0x7E7D, size: 0x8, addend: 0x0, symName: __ZNSt3__112__to_addressB7v160006IiEEPT_S2_, symObjAddr: 0x29BC, symBinAddr: 0x10000609C, symSize: 0x14 }
  - { offsetInCU: 0x7EB2, offset: 0x7EB2, size: 0x8, addend: 0x0, symName: __ZNSt3__130__uninitialized_allocator_copyB7v160006INS_9allocatorIiEEiiLPv0EEEPT0_RT_PKS4_S9_S5_, symObjAddr: 0x2A6C, symBinAddr: 0x10000614C, symSize: 0x38 }
  - { offsetInCU: 0x7F2A, offset: 0x7F2A, size: 0x8, addend: 0x0, symName: __ZNSt3__14copyB7v160006IPKiPiEET0_T_S5_S4_, symObjAddr: 0x2B14, symBinAddr: 0x1000061F4, symSize: 0x40 }
  - { offsetInCU: 0x7F84, offset: 0x7F84, size: 0x8, addend: 0x0, symName: __ZNSt3__16__copyB7v160006INS_17_ClassicAlgPolicyEPKiS3_PiEENS_4pairIT0_T2_EES6_T1_S7_, symObjAddr: 0x2B54, symBinAddr: 0x100006234, symSize: 0x44 }
  - { offsetInCU: 0x7FF0, offset: 0x7FF0, size: 0x8, addend: 0x0, symName: __ZNSt3__123__dispatch_copy_or_moveB7v160006INS_17_ClassicAlgPolicyENS_11__copy_loopIS1_EENS_14__copy_trivialEPKiS6_PiEENS_4pairIT2_T4_EES9_T3_SA_, symObjAddr: 0x2B98, symBinAddr: 0x100006278, symSize: 0x44 }
  - { offsetInCU: 0x806E, offset: 0x806E, size: 0x8, addend: 0x0, symName: __ZNSt3__121__unwrap_and_dispatchB7v160006INS_10__overloadINS_11__copy_loopINS_17_ClassicAlgPolicyEEENS_14__copy_trivialEEEPKiS8_PiLi0EEENS_4pairIT0_T2_EESB_T1_SC_, symObjAddr: 0x2BDC, symBinAddr: 0x1000062BC, symSize: 0xB4 }
  - { offsetInCU: 0x80FC, offset: 0x80FC, size: 0x8, addend: 0x0, symName: __ZNSt3__114__unwrap_rangeB7v160006IPKiS2_EENS_4pairIT0_S4_EET_S6_, symObjAddr: 0x2C90, symBinAddr: 0x100006370, symSize: 0x60 }
  - { offsetInCU: 0x824B, offset: 0x824B, size: 0x8, addend: 0x0, symName: __ZNSt3__113__unwrap_iterB7v160006IPiNS_18__unwrap_iter_implIS1_Lb1EEELi0EEEDTclsrT0_8__unwrapclsr3stdE7declvalIT_EEEES5_, symObjAddr: 0x2D38, symBinAddr: 0x100006418, symSize: 0x24 }
  - { offsetInCU: 0x828F, offset: 0x828F, size: 0x8, addend: 0x0, symName: __ZNSt3__19make_pairB7v160006IPKiPiEENS_4pairINS_18__unwrap_ref_decayIT_E4typeENS5_IT0_E4typeEEEOS6_OS9_, symObjAddr: 0x2D5C, symBinAddr: 0x10000643C, symSize: 0x38 }
  - { offsetInCU: 0x82DE, offset: 0x82DE, size: 0x8, addend: 0x0, symName: __ZNSt3__114__rewrap_rangeB7v160006IPKiS2_EET_S3_T0_, symObjAddr: 0x2D94, symBinAddr: 0x100006474, symSize: 0x2C }
  - { offsetInCU: 0x832A, offset: 0x832A, size: 0x8, addend: 0x0, symName: __ZNSt3__113__rewrap_iterB7v160006IPiS1_NS_18__unwrap_iter_implIS1_Lb1EEEEET_S4_T0_, symObjAddr: 0x2DC0, symBinAddr: 0x1000064A0, symSize: 0x3C }
  - { offsetInCU: 0x837F, offset: 0x837F, size: 0x8, addend: 0x0, symName: __ZNSt3__19make_pairB7v160006IPKiS2_EENS_4pairINS_18__unwrap_ref_decayIT_E4typeENS4_IT0_E4typeEEEOS5_OS8_, symObjAddr: 0x2DFC, symBinAddr: 0x1000064DC, symSize: 0x38 }
  - { offsetInCU: 0x83CE, offset: 0x83CE, size: 0x8, addend: 0x0, symName: __ZNSt3__113__unwrap_iterB7v160006IPKiNS_18__unwrap_iter_implIS2_Lb1EEELi0EEEDTclsrT0_8__unwrapclsr3stdE7declvalIT_EEEES6_, symObjAddr: 0x2E34, symBinAddr: 0x100006514, symSize: 0x24 }
  - { offsetInCU: 0x8539, offset: 0x8539, size: 0x8, addend: 0x0, symName: __ZNSt3__112__to_addressB7v160006IKiEEPT_S3_, symObjAddr: 0x2EEC, symBinAddr: 0x1000065CC, symSize: 0x14 }
  - { offsetInCU: 0x856E, offset: 0x856E, size: 0x8, addend: 0x0, symName: __ZNSt3__119__copy_trivial_implB7v160006IKiiEENS_4pairIPT_PT0_EES4_S4_S6_, symObjAddr: 0x2F00, symBinAddr: 0x1000065E0, symSize: 0x84 }
  - { offsetInCU: 0x85D6, offset: 0x85D6, size: 0x8, addend: 0x0, symName: __ZNSt3__19make_pairB7v160006IRPKiPiEENS_4pairINS_18__unwrap_ref_decayIT_E4typeENS6_IT0_E4typeEEEOS7_OSA_, symObjAddr: 0x2F84, symBinAddr: 0x100006664, symSize: 0x38 }
  - { offsetInCU: 0x8678, offset: 0x8678, size: 0x8, addend: 0x0, symName: __ZNSt3__113__rewrap_iterB7v160006IPKiS2_NS_18__unwrap_iter_implIS2_Lb1EEEEET_S5_T0_, symObjAddr: 0x30C0, symBinAddr: 0x1000067A0, symSize: 0x3C }
  - { offsetInCU: 0x86CD, offset: 0x86CD, size: 0x8, addend: 0x0, symName: __ZNSt3__118__debug_db_erase_cB7v160006INS_6vectorIiNS_9allocatorIiEEEEEEvPT_, symObjAddr: 0x3360, symBinAddr: 0x100006A40, symSize: 0x10 }
  - { offsetInCU: 0x86FE, offset: 0x86FE, size: 0x8, addend: 0x0, symName: __ZNSt3__116__pad_and_outputB7v160006IcNS_11char_traitsIcEEEENS_19ostreambuf_iteratorIT_T0_EES6_PKS4_S8_S8_RNS_8ios_baseES4_, symObjAddr: 0x3814, symBinAddr: 0x100006EF4, symSize: 0x240 }
  - { offsetInCU: 0x87CD, offset: 0x87CD, size: 0x8, addend: 0x0, symName: __ZNSt3__119__debug_db_insert_cB7v160006INS_12basic_stringIcNS_11char_traitsIcEENS_9allocatorIcEEEEEEvPT_, symObjAddr: 0x3CC8, symBinAddr: 0x1000073A8, symSize: 0x10 }
  - { offsetInCU: 0x87FE, offset: 0x87FE, size: 0x8, addend: 0x0, symName: __ZNSt3__112__to_addressB7v160006IcEEPT_S2_, symObjAddr: 0x3D94, symBinAddr: 0x100007474, symSize: 0x14 }
  - { offsetInCU: 0x8866, offset: 0x8866, size: 0x8, addend: 0x0, symName: __ZNSt3__19use_facetB7v160006INS_5ctypeIcEEEERKT_RKNS_6localeE, symObjAddr: 0x404C, symBinAddr: 0x10000772C, symSize: 0x2C }
  - { offsetInCU: 0x8D35, offset: 0x8D35, size: 0x8, addend: 0x0, symName: __ZNSt3__118__constexpr_strlenB7v160006EPKc, symObjAddr: 0x40E4, symBinAddr: 0x1000077C4, symSize: 0x24 }
  - { offsetInCU: 0x9138, offset: 0x9138, size: 0x8, addend: 0x0, symName: __ZSt28__throw_bad_array_new_lengthB7v160006v, symObjAddr: 0x103C, symBinAddr: 0x10000471C, symSize: 0x34 }
  - { offsetInCU: 0xB941, offset: 0xB941, size: 0x8, addend: 0x0, symName: __Z26sparseMatrixVectorMultiplyRKNSt3__16vectorIdNS_9allocatorIdEEEERKNS0_IiNS1_IiEEEES9_S5_i, symObjAddr: 0x0, symBinAddr: 0x1000036E0, symSize: 0x18C }
  - { offsetInCU: 0xB9ED, offset: 0xB9ED, size: 0x8, addend: 0x0, symName: __ZNSt3__16vectorIdNS_9allocatorIdEEEC1EmRKd, symObjAddr: 0x18C, symBinAddr: 0x10000386C, symSize: 0x3C }
  - { offsetInCU: 0xBA37, offset: 0xBA37, size: 0x8, addend: 0x0, symName: __ZNKSt3__16vectorIiNS_9allocatorIiEEEixB7v160006Em, symObjAddr: 0x1C8, symBinAddr: 0x1000038A8, symSize: 0x24 }
  - { offsetInCU: 0xBA6E, offset: 0xBA6E, size: 0x8, addend: 0x0, symName: __ZNKSt3__16vectorIdNS_9allocatorIdEEEixB7v160006Em, symObjAddr: 0x1EC, symBinAddr: 0x1000038CC, symSize: 0x24 }
  - { offsetInCU: 0xBAA5, offset: 0xBAA5, size: 0x8, addend: 0x0, symName: __ZNSt3__16vectorIdNS_9allocatorIdEEEixB7v160006Em, symObjAddr: 0x210, symBinAddr: 0x1000038F0, symSize: 0x24 }
  - { offsetInCU: 0xBADC, offset: 0xBADC, size: 0x8, addend: 0x0, symName: __ZNSt3__16vectorIdNS_9allocatorIdEEED1B7v160006Ev, symObjAddr: 0x234, symBinAddr: 0x100003914, symSize: 0x2C }
  - { offsetInCU: 0xBB06, offset: 0xBB06, size: 0x8, addend: 0x0, symName: _main, symObjAddr: 0x260, symBinAddr: 0x100003940, symSize: 0x2B0 }
  - { offsetInCU: 0xBBAC, offset: 0xBBAC, size: 0x8, addend: 0x0, symName: __ZNSt3__16vectorIdNS_9allocatorIdEEEC1B7v160006ESt16initializer_listIdE, symObjAddr: 0x510, symBinAddr: 0x100003BF0, symSize: 0x3C }
  - { offsetInCU: 0xBBE7, offset: 0xBBE7, size: 0x8, addend: 0x0, symName: __ZNSt3__16vectorIiNS_9allocatorIiEEEC1B7v160006ESt16initializer_listIiE, symObjAddr: 0x54C, symBinAddr: 0x100003C2C, symSize: 0x3C }
  - { offsetInCU: 0xBC22, offset: 0xBC22, size: 0x8, addend: 0x0, symName: __ZNSt3__16vectorIdNS_9allocatorIdEEE5beginB7v160006Ev, symObjAddr: 0x588, symBinAddr: 0x100003C68, symSize: 0x30 }
  - { offsetInCU: 0xBC4A, offset: 0xBC4A, size: 0x8, addend: 0x0, symName: __ZNSt3__16vectorIdNS_9allocatorIdEEE3endB7v160006Ev, symObjAddr: 0x5B8, symBinAddr: 0x100003C98, symSize: 0x30 }
  - { offsetInCU: 0xBC72, offset: 0xBC72, size: 0x8, addend: 0x0, symName: __ZNKSt3__111__wrap_iterIPdEdeB7v160006Ev, symObjAddr: 0x61C, symBinAddr: 0x100003CFC, symSize: 0x18 }
  - { offsetInCU: 0xBC98, offset: 0xBC98, size: 0x8, addend: 0x0, symName: __ZNSt3__111__wrap_iterIPdEppB7v160006Ev, symObjAddr: 0x67C, symBinAddr: 0x100003D5C, symSize: 0x20 }
  - { offsetInCU: 0xBCBE, offset: 0xBCBE, size: 0x8, addend: 0x0, symName: __ZNSt3__16vectorIiNS_9allocatorIiEEED1B7v160006Ev, symObjAddr: 0x69C, symBinAddr: 0x100003D7C, symSize: 0x2C }
  - { offsetInCU: 0xBCE8, offset: 0xBCE8, size: 0x8, addend: 0x0, symName: __ZNKSt3__111__wrap_iterIPdE4baseB7v160006Ev, symObjAddr: 0x710, symBinAddr: 0x100003DF0, symSize: 0x18 }
  - { offsetInCU: 0xBD0E, offset: 0xBD0E, size: 0x8, addend: 0x0, symName: __ZNSt3__16vectorIdNS_9allocatorIdEEEC2EmRKd, symObjAddr: 0x728, symBinAddr: 0x100003E08, symSize: 0xE8 }
  - { offsetInCU: 0xBD77, offset: 0xBD77, size: 0x8, addend: 0x0, symName: __ZNSt3__117__compressed_pairIPdNS_9allocatorIdEEEC1B7v160006IDnNS_18__default_init_tagEEEOT_OT0_, symObjAddr: 0x810, symBinAddr: 0x100003EF0, symSize: 0x3C }
  - { offsetInCU: 0xBDCF, offset: 0xBDCF, size: 0x8, addend: 0x0, symName: __ZNSt3__16vectorIdNS_9allocatorIdEEE16__destroy_vectorC1ERS3_, symObjAddr: 0x88C, symBinAddr: 0x100003F6C, symSize: 0x34 }
  - { offsetInCU: 0xBE08, offset: 0xBE08, size: 0x8, addend: 0x0, symName: __ZNSt3__16vectorIdNS_9allocatorIdEEE11__vallocateB7v160006Em, symObjAddr: 0x8D0, symBinAddr: 0x100003FB0, symSize: 0xAC }
  - { offsetInCU: 0xBE4C, offset: 0xBE4C, size: 0x8, addend: 0x0, symName: __ZNSt3__16vectorIdNS_9allocatorIdEEE18__construct_at_endEmRKd, symObjAddr: 0x97C, symBinAddr: 0x10000405C, symSize: 0xD0 }
  - { offsetInCU: 0xBECD, offset: 0xBECD, size: 0x8, addend: 0x0, symName: __ZNSt3__128__exception_guard_exceptionsINS_6vectorIdNS_9allocatorIdEEE16__destroy_vectorEE10__completeB7v160006Ev, symObjAddr: 0xA4C, symBinAddr: 0x10000412C, symSize: 0x1C }
  - { offsetInCU: 0xBEF3, offset: 0xBEF3, size: 0x8, addend: 0x0, symName: __ZNSt3__128__exception_guard_exceptionsINS_6vectorIdNS_9allocatorIdEEE16__destroy_vectorEED1B7v160006Ev, symObjAddr: 0xA68, symBinAddr: 0x100004148, symSize: 0x2C }
  - { offsetInCU: 0xBF1D, offset: 0xBF1D, size: 0x8, addend: 0x0, symName: __ZNSt3__117__compressed_pairIPdNS_9allocatorIdEEEC2B7v160006IDnNS_18__default_init_tagEEEOT_OT0_, symObjAddr: 0xA94, symBinAddr: 0x100004174, symSize: 0x40 }
  - { offsetInCU: 0xBF75, offset: 0xBF75, size: 0x8, addend: 0x0, symName: __ZNSt3__122__compressed_pair_elemIPdLi0ELb0EEC2B7v160006IDnvEEOT_, symObjAddr: 0xAD4, symBinAddr: 0x1000041B4, symSize: 0x1C }
  - { offsetInCU: 0xBFB7, offset: 0xBFB7, size: 0x8, addend: 0x0, symName: __ZNSt3__122__compressed_pair_elemINS_9allocatorIdEELi1ELb1EEC2B7v160006ENS_18__default_init_tagE, symObjAddr: 0xAF0, symBinAddr: 0x1000041D0, symSize: 0x2C }
  - { offsetInCU: 0xBFEC, offset: 0xBFEC, size: 0x8, addend: 0x0, symName: __ZNSt3__19allocatorIdEC2B7v160006Ev, symObjAddr: 0xB1C, symBinAddr: 0x1000041FC, symSize: 0x2C }
  - { offsetInCU: 0xC016, offset: 0xC016, size: 0x8, addend: 0x0, symName: __ZNSt3__116__non_trivial_ifILb1ENS_9allocatorIdEEEC2B7v160006Ev, symObjAddr: 0xB48, symBinAddr: 0x100004228, symSize: 0x14 }
  - { offsetInCU: 0xC040, offset: 0xC040, size: 0x8, addend: 0x0, symName: __ZNSt3__128__exception_guard_exceptionsINS_6vectorIdNS_9allocatorIdEEE16__destroy_vectorEEC1B7v160006ES5_, symObjAddr: 0xB5C, symBinAddr: 0x10000423C, symSize: 0x34 }
  - { offsetInCU: 0xC078, offset: 0xC078, size: 0x8, addend: 0x0, symName: __ZNSt3__128__exception_guard_exceptionsINS_6vectorIdNS_9allocatorIdEEE16__destroy_vectorEEC2B7v160006ES5_, symObjAddr: 0xB90, symBinAddr: 0x100004270, symSize: 0x24 }
  - { offsetInCU: 0xC0B0, offset: 0xC0B0, size: 0x8, addend: 0x0, symName: __ZNSt3__16vectorIdNS_9allocatorIdEEE16__destroy_vectorC2ERS3_, symObjAddr: 0xBB4, symBinAddr: 0x100004294, symSize: 0x20 }
  - { offsetInCU: 0xC0E9, offset: 0xC0E9, size: 0x8, addend: 0x0, symName: __ZNKSt3__16vectorIdNS_9allocatorIdEEE8max_sizeEv, symObjAddr: 0xBD4, symBinAddr: 0x1000042B4, symSize: 0x60 }
  - { offsetInCU: 0xC111, offset: 0xC111, size: 0x8, addend: 0x0, symName: __ZNKSt3__16vectorIdNS_9allocatorIdEEE20__throw_length_errorB7v160006Ev, symObjAddr: 0xC34, symBinAddr: 0x100004314, symSize: 0x1C }
  - { offsetInCU: 0xC137, offset: 0xC137, size: 0x8, addend: 0x0, symName: __ZNSt3__16vectorIdNS_9allocatorIdEEE7__allocB7v160006Ev, symObjAddr: 0xC90, symBinAddr: 0x100004370, symSize: 0x28 }
  - { offsetInCU: 0xC15D, offset: 0xC15D, size: 0x8, addend: 0x0, symName: __ZNSt3__16vectorIdNS_9allocatorIdEEE9__end_capB7v160006Ev, symObjAddr: 0xCB8, symBinAddr: 0x100004398, symSize: 0x28 }
  - { offsetInCU: 0xC183, offset: 0xC183, size: 0x8, addend: 0x0, symName: __ZNKSt3__16vectorIdNS_9allocatorIdEEE14__annotate_newB7v160006Em, symObjAddr: 0xCE0, symBinAddr: 0x1000043C0, symSize: 0xAC }
  - { offsetInCU: 0xC1C2, offset: 0xC1C2, size: 0x8, addend: 0x0, symName: __ZNSt3__116allocator_traitsINS_9allocatorIdEEE8max_sizeB7v160006IS2_vEEmRKS2_, symObjAddr: 0xDB8, symBinAddr: 0x100004498, symSize: 0x24 }
  - { offsetInCU: 0xC1F0, offset: 0xC1F0, size: 0x8, addend: 0x0, symName: __ZNKSt3__16vectorIdNS_9allocatorIdEEE7__allocB7v160006Ev, symObjAddr: 0xDDC, symBinAddr: 0x1000044BC, symSize: 0x28 }
  - { offsetInCU: 0xC216, offset: 0xC216, size: 0x8, addend: 0x0, symName: __ZNSt3__114numeric_limitsIlE3maxB7v160006Ev, symObjAddr: 0xE04, symBinAddr: 0x1000044E4, symSize: 0x14 }
  - { offsetInCU: 0xC23E, offset: 0xC23E, size: 0x8, addend: 0x0, symName: __ZNKSt3__16__lessImmEclB7v160006ERKmS3_, symObjAddr: 0xE78, symBinAddr: 0x100004558, symSize: 0x34 }
  - { offsetInCU: 0xC280, offset: 0xC280, size: 0x8, addend: 0x0, symName: __ZNKSt3__19allocatorIdE8max_sizeB7v160006Ev, symObjAddr: 0xEAC, symBinAddr: 0x10000458C, symSize: 0x14 }
  - { offsetInCU: 0xC2A6, offset: 0xC2A6, size: 0x8, addend: 0x0, symName: __ZNKSt3__117__compressed_pairIPdNS_9allocatorIdEEE6secondB7v160006Ev, symObjAddr: 0xEC0, symBinAddr: 0x1000045A0, symSize: 0x24 }
  - { offsetInCU: 0xC2CC, offset: 0xC2CC, size: 0x8, addend: 0x0, symName: __ZNKSt3__122__compressed_pair_elemINS_9allocatorIdEELi1ELb1EE5__getB7v160006Ev, symObjAddr: 0xEE4, symBinAddr: 0x1000045C4, symSize: 0x14 }
  - { offsetInCU: 0xC2F2, offset: 0xC2F2, size: 0x8, addend: 0x0, symName: __ZNSt3__123__libcpp_numeric_limitsIlLb1EE3maxB7v160006Ev, symObjAddr: 0xEF8, symBinAddr: 0x1000045D8, symSize: 0x8 }
  - { offsetInCU: 0xC306, offset: 0xC306, size: 0x8, addend: 0x0, symName: __ZNSt12length_errorC1B7v160006EPKc, symObjAddr: 0xF64, symBinAddr: 0x100004644, symSize: 0x34 }
  - { offsetInCU: 0xC33E, offset: 0xC33E, size: 0x8, addend: 0x0, symName: __ZNSt12length_errorC2B7v160006EPKc, symObjAddr: 0xF98, symBinAddr: 0x100004678, symSize: 0x4C }
  - { offsetInCU: 0xC376, offset: 0xC376, size: 0x8, addend: 0x0, symName: __ZNSt3__19allocatorIdE8allocateB7v160006Em, symObjAddr: 0xFE4, symBinAddr: 0x1000046C4, symSize: 0x58 }
  - { offsetInCU: 0xC3AA, offset: 0xC3AA, size: 0x8, addend: 0x0, symName: __ZNSt3__117__compressed_pairIPdNS_9allocatorIdEEE6secondB7v160006Ev, symObjAddr: 0x1140, symBinAddr: 0x100004820, symSize: 0x24 }
  - { offsetInCU: 0xC3D0, offset: 0xC3D0, size: 0x8, addend: 0x0, symName: __ZNSt3__122__compressed_pair_elemINS_9allocatorIdEELi1ELb1EE5__getB7v160006Ev, symObjAddr: 0x1164, symBinAddr: 0x100004844, symSize: 0x14 }
  - { offsetInCU: 0xC3F6, offset: 0xC3F6, size: 0x8, addend: 0x0, symName: __ZNSt3__117__compressed_pairIPdNS_9allocatorIdEEE5firstB7v160006Ev, symObjAddr: 0x1178, symBinAddr: 0x100004858, symSize: 0x24 }
  - { offsetInCU: 0xC41C, offset: 0xC41C, size: 0x8, addend: 0x0, symName: __ZNSt3__122__compressed_pair_elemIPdLi0ELb0EE5__getB7v160006Ev, symObjAddr: 0x119C, symBinAddr: 0x10000487C, symSize: 0x14 }
  - { offsetInCU: 0xC442, offset: 0xC442, size: 0x8, addend: 0x0, symName: __ZNKSt3__16vectorIdNS_9allocatorIdEEE31__annotate_contiguous_containerB7v160006EPKvS5_S5_S5_, symObjAddr: 0x11B0, symBinAddr: 0x100004890, symSize: 0x20 }
  - { offsetInCU: 0xC494, offset: 0xC494, size: 0x8, addend: 0x0, symName: __ZNKSt3__16vectorIdNS_9allocatorIdEEE4dataB7v160006Ev, symObjAddr: 0x11D0, symBinAddr: 0x1000048B0, symSize: 0x28 }
  - { offsetInCU: 0xC4BA, offset: 0xC4BA, size: 0x8, addend: 0x0, symName: __ZNKSt3__16vectorIdNS_9allocatorIdEEE8capacityB7v160006Ev, symObjAddr: 0x11F8, symBinAddr: 0x1000048D8, symSize: 0x40 }
  - { offsetInCU: 0xC4E0, offset: 0xC4E0, size: 0x8, addend: 0x0, symName: __ZNKSt3__16vectorIdNS_9allocatorIdEEE9__end_capB7v160006Ev, symObjAddr: 0x124C, symBinAddr: 0x10000492C, symSize: 0x28 }
  - { offsetInCU: 0xC506, offset: 0xC506, size: 0x8, addend: 0x0, symName: __ZNKSt3__117__compressed_pairIPdNS_9allocatorIdEEE5firstB7v160006Ev, symObjAddr: 0x1274, symBinAddr: 0x100004954, symSize: 0x24 }
  - { offsetInCU: 0xC52C, offset: 0xC52C, size: 0x8, addend: 0x0, symName: __ZNKSt3__122__compressed_pair_elemIPdLi0ELb0EE5__getB7v160006Ev, symObjAddr: 0x1298, symBinAddr: 0x100004978, symSize: 0x14 }
  - { offsetInCU: 0xC56B, offset: 0xC56B, size: 0x8, addend: 0x0, symName: __ZNSt3__16vectorIdNS_9allocatorIdEEE21_ConstructTransactionC1B7v160006ERS3_m, symObjAddr: 0x12AC, symBinAddr: 0x10000498C, symSize: 0x3C }
  - { offsetInCU: 0xC5B3, offset: 0xC5B3, size: 0x8, addend: 0x0, symName: __ZNSt3__116allocator_traitsINS_9allocatorIdEEE9constructB7v160006IdJRKdEvEEvRS2_PT_DpOT0_, symObjAddr: 0x12E8, symBinAddr: 0x1000049C8, symSize: 0x34 }
  - { offsetInCU: 0xC60A, offset: 0xC60A, size: 0x8, addend: 0x0, symName: __ZNSt3__16vectorIdNS_9allocatorIdEEE21_ConstructTransactionD1B7v160006Ev, symObjAddr: 0x131C, symBinAddr: 0x1000049FC, symSize: 0x2C }
  - { offsetInCU: 0xC634, offset: 0xC634, size: 0x8, addend: 0x0, symName: __ZNSt3__16vectorIdNS_9allocatorIdEEE21_ConstructTransactionC2B7v160006ERS3_m, symObjAddr: 0x1348, symBinAddr: 0x100004A28, symSize: 0x44 }
  - { offsetInCU: 0xC67C, offset: 0xC67C, size: 0x8, addend: 0x0, symName: __ZNSt3__19allocatorIdE9constructB7v160006IdJRKdEEEvPT_DpOT0_, symObjAddr: 0x138C, symBinAddr: 0x100004A6C, symSize: 0x28 }
  - { offsetInCU: 0xC6D2, offset: 0xC6D2, size: 0x8, addend: 0x0, symName: __ZNSt3__16vectorIdNS_9allocatorIdEEE21_ConstructTransactionD2B7v160006Ev, symObjAddr: 0x13B4, symBinAddr: 0x100004A94, symSize: 0x20 }
  - { offsetInCU: 0xC6FC, offset: 0xC6FC, size: 0x8, addend: 0x0, symName: __ZNSt3__128__exception_guard_exceptionsINS_6vectorIdNS_9allocatorIdEEE16__destroy_vectorEED2B7v160006Ev, symObjAddr: 0x13D4, symBinAddr: 0x100004AB4, symSize: 0x50 }
  - { offsetInCU: 0xC726, offset: 0xC726, size: 0x8, addend: 0x0, symName: __ZNSt3__16vectorIdNS_9allocatorIdEEE16__destroy_vectorclB7v160006Ev, symObjAddr: 0x1424, symBinAddr: 0x100004B04, symSize: 0x9C }
  - { offsetInCU: 0xC74C, offset: 0xC74C, size: 0x8, addend: 0x0, symName: __ZNKSt3__16vectorIdNS_9allocatorIdEEE17__annotate_deleteB7v160006Ev, symObjAddr: 0x14C0, symBinAddr: 0x100004BA0, symSize: 0xB8 }
  - { offsetInCU: 0xC772, offset: 0xC772, size: 0x8, addend: 0x0, symName: __ZNSt3__16vectorIdNS_9allocatorIdEEE7__clearB7v160006Ev, symObjAddr: 0x1588, symBinAddr: 0x100004C68, symSize: 0x28 }
  - { offsetInCU: 0xC798, offset: 0xC798, size: 0x8, addend: 0x0, symName: __ZNSt3__116allocator_traitsINS_9allocatorIdEEE10deallocateB7v160006ERS2_Pdm, symObjAddr: 0x15B0, symBinAddr: 0x100004C90, symSize: 0x34 }
  - { offsetInCU: 0xC7DA, offset: 0xC7DA, size: 0x8, addend: 0x0, symName: __ZNKSt3__16vectorIdNS_9allocatorIdEEE4sizeB7v160006Ev, symObjAddr: 0x15E4, symBinAddr: 0x100004CC4, symSize: 0x28 }
  - { offsetInCU: 0xC800, offset: 0xC800, size: 0x8, addend: 0x0, symName: __ZNSt3__16vectorIdNS_9allocatorIdEEE22__base_destruct_at_endB7v160006EPd, symObjAddr: 0x160C, symBinAddr: 0x100004CEC, symSize: 0x8C }
  - { offsetInCU: 0xC844, offset: 0xC844, size: 0x8, addend: 0x0, symName: __ZNSt3__116allocator_traitsINS_9allocatorIdEEE7destroyB7v160006IdvEEvRS2_PT_, symObjAddr: 0x1698, symBinAddr: 0x100004D78, symSize: 0x2C }
  - { offsetInCU: 0xC881, offset: 0xC881, size: 0x8, addend: 0x0, symName: __ZNSt3__19allocatorIdE7destroyB7v160006EPd, symObjAddr: 0x16C4, symBinAddr: 0x100004DA4, symSize: 0x14 }
  - { offsetInCU: 0xC8B5, offset: 0xC8B5, size: 0x8, addend: 0x0, symName: __ZNSt3__19allocatorIdE10deallocateB7v160006EPdm, symObjAddr: 0x16D8, symBinAddr: 0x100004DB8, symSize: 0x40 }
  - { offsetInCU: 0xC8F7, offset: 0xC8F7, size: 0x8, addend: 0x0, symName: __ZNSt3__16vectorIdNS_9allocatorIdEEED2B7v160006Ev, symObjAddr: 0x1820, symBinAddr: 0x100004F00, symSize: 0x44 }
  - { offsetInCU: 0xC921, offset: 0xC921, size: 0x8, addend: 0x0, symName: __ZNSt3__16vectorIdNS_9allocatorIdEEEC2B7v160006ESt16initializer_listIdE, symObjAddr: 0x1864, symBinAddr: 0x100004F44, symSize: 0x128 }
  - { offsetInCU: 0xC971, offset: 0xC971, size: 0x8, addend: 0x0, symName: __ZNKSt16initializer_listIdE4sizeB7v160006Ev, symObjAddr: 0x198C, symBinAddr: 0x10000506C, symSize: 0x18 }
  - { offsetInCU: 0xC997, offset: 0xC997, size: 0x8, addend: 0x0, symName: __ZNSt3__16vectorIdNS_9allocatorIdEEE18__construct_at_endIPKdLi0EEEvT_S7_m, symObjAddr: 0x19A4, symBinAddr: 0x100005084, symSize: 0x8C }
  - { offsetInCU: 0xCA0A, offset: 0xCA0A, size: 0x8, addend: 0x0, symName: __ZNKSt16initializer_listIdE5beginB7v160006Ev, symObjAddr: 0x1A30, symBinAddr: 0x100005110, symSize: 0x18 }
  - { offsetInCU: 0xCA30, offset: 0xCA30, size: 0x8, addend: 0x0, symName: __ZNKSt16initializer_listIdE3endB7v160006Ev, symObjAddr: 0x1A48, symBinAddr: 0x100005128, symSize: 0x20 }
  - { offsetInCU: 0xCA79, offset: 0xCA79, size: 0x8, addend: 0x0, symName: __ZNKSt3__114__copy_trivialclB7v160006IKddLi0EEENS_4pairIPT_PT0_EES5_S5_S7_, symObjAddr: 0x1C7C, symBinAddr: 0x10000535C, symSize: 0x48 }
  - { offsetInCU: 0xCAFF, offset: 0xCAFF, size: 0x8, addend: 0x0, symName: __ZNSt3__14pairIPKdS2_EC1B7v160006IS2_S2_LPv0EEEOT_OT0_, symObjAddr: 0x1DE4, symBinAddr: 0x1000054C4, symSize: 0x3C }
  - { offsetInCU: 0xCB5D, offset: 0xCB5D, size: 0x8, addend: 0x0, symName: __ZNSt3__14pairIPKdS2_EC2B7v160006IS2_S2_LPv0EEEOT_OT0_, symObjAddr: 0x1E20, symBinAddr: 0x100005500, symSize: 0x34 }
  - { offsetInCU: 0xCBBB, offset: 0xCBBB, size: 0x8, addend: 0x0, symName: __ZNSt3__118__unwrap_iter_implIPKdLb1EE8__unwrapB7v160006ES2_, symObjAddr: 0x1E54, symBinAddr: 0x100005534, symSize: 0x24 }
  - { offsetInCU: 0xCBE8, offset: 0xCBE8, size: 0x8, addend: 0x0, symName: __ZNSt3__14pairIPKdPdEC1B7v160006IRS2_S3_LPv0EEEOT_OT0_, symObjAddr: 0x1F48, symBinAddr: 0x100005628, symSize: 0x3C }
  - { offsetInCU: 0xCC46, offset: 0xCC46, size: 0x8, addend: 0x0, symName: __ZNSt3__14pairIPKdPdEC2B7v160006IRS2_S3_LPv0EEEOT_OT0_, symObjAddr: 0x1F84, symBinAddr: 0x100005664, symSize: 0x34 }
  - { offsetInCU: 0xCCA4, offset: 0xCCA4, size: 0x8, addend: 0x0, symName: __ZNSt3__118__unwrap_iter_implIPdLb1EE8__unwrapB7v160006ES1_, symObjAddr: 0x1FB8, symBinAddr: 0x100005698, symSize: 0x24 }
  - { offsetInCU: 0xCCC7, offset: 0xCCC7, size: 0x8, addend: 0x0, symName: __ZNSt3__14pairIPKdPdEC1B7v160006IS2_S3_LPv0EEEOT_OT0_, symObjAddr: 0x1FDC, symBinAddr: 0x1000056BC, symSize: 0x3C }
  - { offsetInCU: 0xCD25, offset: 0xCD25, size: 0x8, addend: 0x0, symName: __ZNSt3__14pairIPKdPdEC2B7v160006IS2_S3_LPv0EEEOT_OT0_, symObjAddr: 0x2018, symBinAddr: 0x1000056F8, symSize: 0x34 }
  - { offsetInCU: 0xCD83, offset: 0xCD83, size: 0x8, addend: 0x0, symName: __ZNSt3__118__unwrap_iter_implIPKdLb1EE8__rewrapB7v160006ES2_S2_, symObjAddr: 0x2088, symBinAddr: 0x100005768, symSize: 0x50 }
  - { offsetInCU: 0xCDB4, offset: 0xCDB4, size: 0x8, addend: 0x0, symName: __ZNSt3__118__unwrap_iter_implIPdLb1EE8__rewrapB7v160006ES1_S1_, symObjAddr: 0x20D8, symBinAddr: 0x1000057B8, symSize: 0x50 }
  - { offsetInCU: 0xCDE5, offset: 0xCDE5, size: 0x8, addend: 0x0, symName: __ZNSt3__16vectorIiNS_9allocatorIiEEEC2B7v160006ESt16initializer_listIiE, symObjAddr: 0x2128, symBinAddr: 0x100005808, symSize: 0x124 }
  - { offsetInCU: 0xCE36, offset: 0xCE36, size: 0x8, addend: 0x0, symName: __ZNSt3__117__compressed_pairIPiNS_9allocatorIiEEEC1B7v160006IDnNS_18__default_init_tagEEEOT_OT0_, symObjAddr: 0x224C, symBinAddr: 0x10000592C, symSize: 0x3C }
  - { offsetInCU: 0xCE8E, offset: 0xCE8E, size: 0x8, addend: 0x0, symName: __ZNSt3__16vectorIiNS_9allocatorIiEEE16__destroy_vectorC1ERS3_, symObjAddr: 0x22C8, symBinAddr: 0x1000059A8, symSize: 0x34 }
  - { offsetInCU: 0xCEC7, offset: 0xCEC7, size: 0x8, addend: 0x0, symName: __ZNKSt16initializer_listIiE4sizeB7v160006Ev, symObjAddr: 0x230C, symBinAddr: 0x1000059EC, symSize: 0x18 }
  - { offsetInCU: 0xCEED, offset: 0xCEED, size: 0x8, addend: 0x0, symName: __ZNSt3__16vectorIiNS_9allocatorIiEEE11__vallocateB7v160006Em, symObjAddr: 0x2324, symBinAddr: 0x100005A04, symSize: 0xAC }
  - { offsetInCU: 0xCF31, offset: 0xCF31, size: 0x8, addend: 0x0, symName: __ZNSt3__16vectorIiNS_9allocatorIiEEE18__construct_at_endIPKiLi0EEEvT_S7_m, symObjAddr: 0x23D0, symBinAddr: 0x100005AB0, symSize: 0x8C }
  - { offsetInCU: 0xCFA4, offset: 0xCFA4, size: 0x8, addend: 0x0, symName: __ZNKSt16initializer_listIiE5beginB7v160006Ev, symObjAddr: 0x245C, symBinAddr: 0x100005B3C, symSize: 0x18 }
  - { offsetInCU: 0xCFCA, offset: 0xCFCA, size: 0x8, addend: 0x0, symName: __ZNKSt16initializer_listIiE3endB7v160006Ev, symObjAddr: 0x2474, symBinAddr: 0x100005B54, symSize: 0x20 }
  - { offsetInCU: 0xCFF0, offset: 0xCFF0, size: 0x8, addend: 0x0, symName: __ZNSt3__128__exception_guard_exceptionsINS_6vectorIiNS_9allocatorIiEEE16__destroy_vectorEE10__completeB7v160006Ev, symObjAddr: 0x2494, symBinAddr: 0x100005B74, symSize: 0x1C }
  - { offsetInCU: 0xD016, offset: 0xD016, size: 0x8, addend: 0x0, symName: __ZNSt3__128__exception_guard_exceptionsINS_6vectorIiNS_9allocatorIiEEE16__destroy_vectorEED1B7v160006Ev, symObjAddr: 0x24B0, symBinAddr: 0x100005B90, symSize: 0x2C }
  - { offsetInCU: 0xD040, offset: 0xD040, size: 0x8, addend: 0x0, symName: __ZNSt3__117__compressed_pairIPiNS_9allocatorIiEEEC2B7v160006IDnNS_18__default_init_tagEEEOT_OT0_, symObjAddr: 0x24DC, symBinAddr: 0x100005BBC, symSize: 0x40 }
  - { offsetInCU: 0xD098, offset: 0xD098, size: 0x8, addend: 0x0, symName: __ZNSt3__122__compressed_pair_elemIPiLi0ELb0EEC2B7v160006IDnvEEOT_, symObjAddr: 0x251C, symBinAddr: 0x100005BFC, symSize: 0x1C }
  - { offsetInCU: 0xD0DA, offset: 0xD0DA, size: 0x8, addend: 0x0, symName: __ZNSt3__122__compressed_pair_elemINS_9allocatorIiEELi1ELb1EEC2B7v160006ENS_18__default_init_tagE, symObjAddr: 0x2538, symBinAddr: 0x100005C18, symSize: 0x2C }
  - { offsetInCU: 0xD10F, offset: 0xD10F, size: 0x8, addend: 0x0, symName: __ZNSt3__19allocatorIiEC2B7v160006Ev, symObjAddr: 0x2564, symBinAddr: 0x100005C44, symSize: 0x2C }
  - { offsetInCU: 0xD139, offset: 0xD139, size: 0x8, addend: 0x0, symName: __ZNSt3__116__non_trivial_ifILb1ENS_9allocatorIiEEEC2B7v160006Ev, symObjAddr: 0x2590, symBinAddr: 0x100005C70, symSize: 0x14 }
  - { offsetInCU: 0xD163, offset: 0xD163, size: 0x8, addend: 0x0, symName: __ZNSt3__128__exception_guard_exceptionsINS_6vectorIiNS_9allocatorIiEEE16__destroy_vectorEEC1B7v160006ES5_, symObjAddr: 0x25A4, symBinAddr: 0x100005C84, symSize: 0x34 }
  - { offsetInCU: 0xD19B, offset: 0xD19B, size: 0x8, addend: 0x0, symName: __ZNSt3__128__exception_guard_exceptionsINS_6vectorIiNS_9allocatorIiEEE16__destroy_vectorEEC2B7v160006ES5_, symObjAddr: 0x25D8, symBinAddr: 0x100005CB8, symSize: 0x24 }
  - { offsetInCU: 0xD1D3, offset: 0xD1D3, size: 0x8, addend: 0x0, symName: __ZNSt3__16vectorIiNS_9allocatorIiEEE16__destroy_vectorC2ERS3_, symObjAddr: 0x25FC, symBinAddr: 0x100005CDC, symSize: 0x20 }
  - { offsetInCU: 0xD20C, offset: 0xD20C, size: 0x8, addend: 0x0, symName: __ZNKSt3__16vectorIiNS_9allocatorIiEEE8max_sizeEv, symObjAddr: 0x261C, symBinAddr: 0x100005CFC, symSize: 0x60 }
  - { offsetInCU: 0xD234, offset: 0xD234, size: 0x8, addend: 0x0, symName: __ZNKSt3__16vectorIiNS_9allocatorIiEEE20__throw_length_errorB7v160006Ev, symObjAddr: 0x267C, symBinAddr: 0x100005D5C, symSize: 0x1C }
  - { offsetInCU: 0xD25A, offset: 0xD25A, size: 0x8, addend: 0x0, symName: __ZNSt3__16vectorIiNS_9allocatorIiEEE7__allocB7v160006Ev, symObjAddr: 0x26D8, symBinAddr: 0x100005DB8, symSize: 0x28 }
  - { offsetInCU: 0xD280, offset: 0xD280, size: 0x8, addend: 0x0, symName: __ZNSt3__16vectorIiNS_9allocatorIiEEE9__end_capB7v160006Ev, symObjAddr: 0x2700, symBinAddr: 0x100005DE0, symSize: 0x28 }
  - { offsetInCU: 0xD2A6, offset: 0xD2A6, size: 0x8, addend: 0x0, symName: __ZNKSt3__16vectorIiNS_9allocatorIiEEE14__annotate_newB7v160006Em, symObjAddr: 0x2728, symBinAddr: 0x100005E08, symSize: 0xAC }
  - { offsetInCU: 0xD2E5, offset: 0xD2E5, size: 0x8, addend: 0x0, symName: __ZNSt3__116allocator_traitsINS_9allocatorIiEEE8max_sizeB7v160006IS2_vEEmRKS2_, symObjAddr: 0x27D4, symBinAddr: 0x100005EB4, symSize: 0x24 }
  - { offsetInCU: 0xD313, offset: 0xD313, size: 0x8, addend: 0x0, symName: __ZNKSt3__16vectorIiNS_9allocatorIiEEE7__allocB7v160006Ev, symObjAddr: 0x27F8, symBinAddr: 0x100005ED8, symSize: 0x28 }
  - { offsetInCU: 0xD339, offset: 0xD339, size: 0x8, addend: 0x0, symName: __ZNKSt3__19allocatorIiE8max_sizeB7v160006Ev, symObjAddr: 0x2820, symBinAddr: 0x100005F00, symSize: 0x14 }
  - { offsetInCU: 0xD35F, offset: 0xD35F, size: 0x8, addend: 0x0, symName: __ZNKSt3__117__compressed_pairIPiNS_9allocatorIiEEE6secondB7v160006Ev, symObjAddr: 0x2834, symBinAddr: 0x100005F14, symSize: 0x24 }
  - { offsetInCU: 0xD385, offset: 0xD385, size: 0x8, addend: 0x0, symName: __ZNKSt3__122__compressed_pair_elemINS_9allocatorIiEELi1ELb1EE5__getB7v160006Ev, symObjAddr: 0x2858, symBinAddr: 0x100005F38, symSize: 0x14 }
  - { offsetInCU: 0xD3AB, offset: 0xD3AB, size: 0x8, addend: 0x0, symName: __ZNSt3__19allocatorIiE8allocateB7v160006Em, symObjAddr: 0x286C, symBinAddr: 0x100005F4C, symSize: 0x58 }
  - { offsetInCU: 0xD3DF, offset: 0xD3DF, size: 0x8, addend: 0x0, symName: __ZNSt3__117__compressed_pairIPiNS_9allocatorIiEEE6secondB7v160006Ev, symObjAddr: 0x28C4, symBinAddr: 0x100005FA4, symSize: 0x24 }
  - { offsetInCU: 0xD405, offset: 0xD405, size: 0x8, addend: 0x0, symName: __ZNSt3__122__compressed_pair_elemINS_9allocatorIiEELi1ELb1EE5__getB7v160006Ev, symObjAddr: 0x28E8, symBinAddr: 0x100005FC8, symSize: 0x14 }
  - { offsetInCU: 0xD42B, offset: 0xD42B, size: 0x8, addend: 0x0, symName: __ZNSt3__117__compressed_pairIPiNS_9allocatorIiEEE5firstB7v160006Ev, symObjAddr: 0x28FC, symBinAddr: 0x100005FDC, symSize: 0x24 }
  - { offsetInCU: 0xD451, offset: 0xD451, size: 0x8, addend: 0x0, symName: __ZNSt3__122__compressed_pair_elemIPiLi0ELb0EE5__getB7v160006Ev, symObjAddr: 0x2920, symBinAddr: 0x100006000, symSize: 0x14 }
  - { offsetInCU: 0xD477, offset: 0xD477, size: 0x8, addend: 0x0, symName: __ZNKSt3__16vectorIiNS_9allocatorIiEEE31__annotate_contiguous_containerB7v160006EPKvS5_S5_S5_, symObjAddr: 0x2934, symBinAddr: 0x100006014, symSize: 0x20 }
  - { offsetInCU: 0xD4C9, offset: 0xD4C9, size: 0x8, addend: 0x0, symName: __ZNKSt3__16vectorIiNS_9allocatorIiEEE4dataB7v160006Ev, symObjAddr: 0x2954, symBinAddr: 0x100006034, symSize: 0x28 }
  - { offsetInCU: 0xD4EF, offset: 0xD4EF, size: 0x8, addend: 0x0, symName: __ZNKSt3__16vectorIiNS_9allocatorIiEEE8capacityB7v160006Ev, symObjAddr: 0x297C, symBinAddr: 0x10000605C, symSize: 0x40 }
  - { offsetInCU: 0xD515, offset: 0xD515, size: 0x8, addend: 0x0, symName: __ZNKSt3__16vectorIiNS_9allocatorIiEEE9__end_capB7v160006Ev, symObjAddr: 0x29D0, symBinAddr: 0x1000060B0, symSize: 0x28 }
  - { offsetInCU: 0xD53B, offset: 0xD53B, size: 0x8, addend: 0x0, symName: __ZNKSt3__117__compressed_pairIPiNS_9allocatorIiEEE5firstB7v160006Ev, symObjAddr: 0x29F8, symBinAddr: 0x1000060D8, symSize: 0x24 }
  - { offsetInCU: 0xD561, offset: 0xD561, size: 0x8, addend: 0x0, symName: __ZNKSt3__122__compressed_pair_elemIPiLi0ELb0EE5__getB7v160006Ev, symObjAddr: 0x2A1C, symBinAddr: 0x1000060FC, symSize: 0x14 }
  - { offsetInCU: 0xD5A0, offset: 0xD5A0, size: 0x8, addend: 0x0, symName: __ZNSt3__16vectorIiNS_9allocatorIiEEE21_ConstructTransactionC1B7v160006ERS3_m, symObjAddr: 0x2A30, symBinAddr: 0x100006110, symSize: 0x3C }
  - { offsetInCU: 0xD5E8, offset: 0xD5E8, size: 0x8, addend: 0x0, symName: __ZNSt3__16vectorIiNS_9allocatorIiEEE21_ConstructTransactionD1B7v160006Ev, symObjAddr: 0x2AA4, symBinAddr: 0x100006184, symSize: 0x2C }
  - { offsetInCU: 0xD612, offset: 0xD612, size: 0x8, addend: 0x0, symName: __ZNSt3__16vectorIiNS_9allocatorIiEEE21_ConstructTransactionC2B7v160006ERS3_m, symObjAddr: 0x2AD0, symBinAddr: 0x1000061B0, symSize: 0x44 }
  - { offsetInCU: 0xD673, offset: 0xD673, size: 0x8, addend: 0x0, symName: __ZNKSt3__114__copy_trivialclB7v160006IKiiLi0EEENS_4pairIPT_PT0_EES5_S5_S7_, symObjAddr: 0x2CF0, symBinAddr: 0x1000063D0, symSize: 0x48 }
  - { offsetInCU: 0xD6F9, offset: 0xD6F9, size: 0x8, addend: 0x0, symName: __ZNSt3__14pairIPKiS2_EC1B7v160006IS2_S2_LPv0EEEOT_OT0_, symObjAddr: 0x2E58, symBinAddr: 0x100006538, symSize: 0x3C }
  - { offsetInCU: 0xD757, offset: 0xD757, size: 0x8, addend: 0x0, symName: __ZNSt3__14pairIPKiS2_EC2B7v160006IS2_S2_LPv0EEEOT_OT0_, symObjAddr: 0x2E94, symBinAddr: 0x100006574, symSize: 0x34 }
  - { offsetInCU: 0xD7B5, offset: 0xD7B5, size: 0x8, addend: 0x0, symName: __ZNSt3__118__unwrap_iter_implIPKiLb1EE8__unwrapB7v160006ES2_, symObjAddr: 0x2EC8, symBinAddr: 0x1000065A8, symSize: 0x24 }
  - { offsetInCU: 0xD7E2, offset: 0xD7E2, size: 0x8, addend: 0x0, symName: __ZNSt3__14pairIPKiPiEC1B7v160006IRS2_S3_LPv0EEEOT_OT0_, symObjAddr: 0x2FBC, symBinAddr: 0x10000669C, symSize: 0x3C }
  - { offsetInCU: 0xD840, offset: 0xD840, size: 0x8, addend: 0x0, symName: __ZNSt3__14pairIPKiPiEC2B7v160006IRS2_S3_LPv0EEEOT_OT0_, symObjAddr: 0x2FF8, symBinAddr: 0x1000066D8, symSize: 0x34 }
  - { offsetInCU: 0xD89E, offset: 0xD89E, size: 0x8, addend: 0x0, symName: __ZNSt3__118__unwrap_iter_implIPiLb1EE8__unwrapB7v160006ES1_, symObjAddr: 0x302C, symBinAddr: 0x10000670C, symSize: 0x24 }
  - { offsetInCU: 0xD8C1, offset: 0xD8C1, size: 0x8, addend: 0x0, symName: __ZNSt3__14pairIPKiPiEC1B7v160006IS2_S3_LPv0EEEOT_OT0_, symObjAddr: 0x3050, symBinAddr: 0x100006730, symSize: 0x3C }
  - { offsetInCU: 0xD91F, offset: 0xD91F, size: 0x8, addend: 0x0, symName: __ZNSt3__14pairIPKiPiEC2B7v160006IS2_S3_LPv0EEEOT_OT0_, symObjAddr: 0x308C, symBinAddr: 0x10000676C, symSize: 0x34 }
  - { offsetInCU: 0xD97D, offset: 0xD97D, size: 0x8, addend: 0x0, symName: __ZNSt3__118__unwrap_iter_implIPKiLb1EE8__rewrapB7v160006ES2_S2_, symObjAddr: 0x30FC, symBinAddr: 0x1000067DC, symSize: 0x50 }
  - { offsetInCU: 0xD9AE, offset: 0xD9AE, size: 0x8, addend: 0x0, symName: __ZNSt3__118__unwrap_iter_implIPiLb1EE8__rewrapB7v160006ES1_S1_, symObjAddr: 0x314C, symBinAddr: 0x10000682C, symSize: 0x50 }
  - { offsetInCU: 0xD9DF, offset: 0xD9DF, size: 0x8, addend: 0x0, symName: __ZNSt3__16vectorIiNS_9allocatorIiEEE21_ConstructTransactionD2B7v160006Ev, symObjAddr: 0x319C, symBinAddr: 0x10000687C, symSize: 0x20 }
  - { offsetInCU: 0xDA09, offset: 0xDA09, size: 0x8, addend: 0x0, symName: __ZNSt3__128__exception_guard_exceptionsINS_6vectorIiNS_9allocatorIiEEE16__destroy_vectorEED2B7v160006Ev, symObjAddr: 0x31BC, symBinAddr: 0x10000689C, symSize: 0x50 }
  - { offsetInCU: 0xDA33, offset: 0xDA33, size: 0x8, addend: 0x0, symName: __ZNSt3__16vectorIiNS_9allocatorIiEEE16__destroy_vectorclB7v160006Ev, symObjAddr: 0x320C, symBinAddr: 0x1000068EC, symSize: 0x9C }
  - { offsetInCU: 0xDA59, offset: 0xDA59, size: 0x8, addend: 0x0, symName: __ZNKSt3__16vectorIiNS_9allocatorIiEEE17__annotate_deleteB7v160006Ev, symObjAddr: 0x32A8, symBinAddr: 0x100006988, symSize: 0xB8 }
  - { offsetInCU: 0xDA7F, offset: 0xDA7F, size: 0x8, addend: 0x0, symName: __ZNSt3__16vectorIiNS_9allocatorIiEEE7__clearB7v160006Ev, symObjAddr: 0x3370, symBinAddr: 0x100006A50, symSize: 0x28 }
  - { offsetInCU: 0xDAA5, offset: 0xDAA5, size: 0x8, addend: 0x0, symName: __ZNSt3__116allocator_traitsINS_9allocatorIiEEE10deallocateB7v160006ERS2_Pim, symObjAddr: 0x3398, symBinAddr: 0x100006A78, symSize: 0x34 }
  - { offsetInCU: 0xDAE7, offset: 0xDAE7, size: 0x8, addend: 0x0, symName: __ZNKSt3__16vectorIiNS_9allocatorIiEEE4sizeB7v160006Ev, symObjAddr: 0x33CC, symBinAddr: 0x100006AAC, symSize: 0x28 }
  - { offsetInCU: 0xDB0D, offset: 0xDB0D, size: 0x8, addend: 0x0, symName: __ZNSt3__16vectorIiNS_9allocatorIiEEE22__base_destruct_at_endB7v160006EPi, symObjAddr: 0x33F4, symBinAddr: 0x100006AD4, symSize: 0x8C }
  - { offsetInCU: 0xDB51, offset: 0xDB51, size: 0x8, addend: 0x0, symName: __ZNSt3__116allocator_traitsINS_9allocatorIiEEE7destroyB7v160006IivEEvRS2_PT_, symObjAddr: 0x3480, symBinAddr: 0x100006B60, symSize: 0x2C }
  - { offsetInCU: 0xDB8E, offset: 0xDB8E, size: 0x8, addend: 0x0, symName: __ZNSt3__19allocatorIiE7destroyB7v160006EPi, symObjAddr: 0x34AC, symBinAddr: 0x100006B8C, symSize: 0x14 }
  - { offsetInCU: 0xDBC2, offset: 0xDBC2, size: 0x8, addend: 0x0, symName: __ZNSt3__19allocatorIiE10deallocateB7v160006EPim, symObjAddr: 0x34C0, symBinAddr: 0x100006BA0, symSize: 0x40 }
  - { offsetInCU: 0xDC04, offset: 0xDC04, size: 0x8, addend: 0x0, symName: __ZNSt3__16vectorIiNS_9allocatorIiEEED2B7v160006Ev, symObjAddr: 0x3500, symBinAddr: 0x100006BE0, symSize: 0x44 }
  - { offsetInCU: 0xDC2E, offset: 0xDC2E, size: 0x8, addend: 0x0, symName: __ZNSt3__16vectorIdNS_9allocatorIdEEE11__make_iterB7v160006EPd, symObjAddr: 0x3544, symBinAddr: 0x100006C24, symSize: 0x34 }
  - { offsetInCU: 0xDC63, offset: 0xDC63, size: 0x8, addend: 0x0, symName: __ZNSt3__111__wrap_iterIPdEC1B7v160006EPKvS1_, symObjAddr: 0x3578, symBinAddr: 0x100006C58, symSize: 0x3C }
  - { offsetInCU: 0xDCA9, offset: 0xDCA9, size: 0x8, addend: 0x0, symName: __ZNSt3__111__wrap_iterIPdEC2B7v160006EPKvS1_, symObjAddr: 0x35B4, symBinAddr: 0x100006C94, symSize: 0x24 }
  - { offsetInCU: 0xDCEF, offset: 0xDCEF, size: 0x8, addend: 0x0, symName: __ZNSt3__111char_traitsIcE6lengthEPKc, symObjAddr: 0x37C4, symBinAddr: 0x100006EA4, symSize: 0x34 }
  - { offsetInCU: 0xDD30, offset: 0xDD30, size: 0x8, addend: 0x0, symName: __ZNKSt3__113basic_ostreamIcNS_11char_traitsIcEEE6sentrycvbB7v160006Ev, symObjAddr: 0x37F8, symBinAddr: 0x100006ED8, symSize: 0x1C }
  - { offsetInCU: 0xDD56, offset: 0xDD56, size: 0x8, addend: 0x0, symName: __ZNSt3__119ostreambuf_iteratorIcNS_11char_traitsIcEEEC1B7v160006ERNS_13basic_ostreamIcS2_EE, symObjAddr: 0x3A54, symBinAddr: 0x100007134, symSize: 0x34 }
  - { offsetInCU: 0xDD8E, offset: 0xDD8E, size: 0x8, addend: 0x0, symName: __ZNKSt3__18ios_base5flagsB7v160006Ev, symObjAddr: 0x3A88, symBinAddr: 0x100007168, symSize: 0x18 }
  - { offsetInCU: 0xDDB6, offset: 0xDDB6, size: 0x8, addend: 0x0, symName: __ZNKSt3__19basic_iosIcNS_11char_traitsIcEEE4fillB7v160006Ev, symObjAddr: 0x3AA0, symBinAddr: 0x100007180, symSize: 0x64 }
  - { offsetInCU: 0xDDDE, offset: 0xDDDE, size: 0x8, addend: 0x0, symName: __ZNKSt3__119ostreambuf_iteratorIcNS_11char_traitsIcEEE6failedB7v160006Ev, symObjAddr: 0x3B04, symBinAddr: 0x1000071E4, symSize: 0x24 }
  - { offsetInCU: 0xDE04, offset: 0xDE04, size: 0x8, addend: 0x0, symName: __ZNSt3__19basic_iosIcNS_11char_traitsIcEEE8setstateB7v160006Ej, symObjAddr: 0x3B28, symBinAddr: 0x100007208, symSize: 0x2C }
  - { offsetInCU: 0xDE39, offset: 0xDE39, size: 0x8, addend: 0x0, symName: __ZNKSt3__18ios_base5widthB7v160006Ev, symObjAddr: 0x3B54, symBinAddr: 0x100007234, symSize: 0x18 }
  - { offsetInCU: 0xDE61, offset: 0xDE61, size: 0x8, addend: 0x0, symName: __ZNSt3__115basic_streambufIcNS_11char_traitsIcEEE5sputnB7v160006EPKcl, symObjAddr: 0x3B6C, symBinAddr: 0x10000724C, symSize: 0x3C }
  - { offsetInCU: 0xDEA3, offset: 0xDEA3, size: 0x8, addend: 0x0, symName: __ZNSt3__112basic_stringIcNS_11char_traitsIcEENS_9allocatorIcEEEC1B7v160006Emc, symObjAddr: 0x3BA8, symBinAddr: 0x100007288, symSize: 0x3C }
  - { offsetInCU: 0xDEEB, offset: 0xDEEB, size: 0x8, addend: 0x0, symName: __ZNSt3__112basic_stringIcNS_11char_traitsIcEENS_9allocatorIcEEE4dataB7v160006Ev, symObjAddr: 0x3BE4, symBinAddr: 0x1000072C4, symSize: 0x28 }
  - { offsetInCU: 0xDF11, offset: 0xDF11, size: 0x8, addend: 0x0, symName: __ZNSt3__18ios_base5widthB7v160006El, symObjAddr: 0x3C0C, symBinAddr: 0x1000072EC, symSize: 0x2C }
  - { offsetInCU: 0xDF57, offset: 0xDF57, size: 0x8, addend: 0x0, symName: __ZNSt3__112basic_stringIcNS_11char_traitsIcEENS_9allocatorIcEEEC2B7v160006Emc, symObjAddr: 0x3C38, symBinAddr: 0x100007318, symSize: 0x54 }
  - { offsetInCU: 0xDF9F, offset: 0xDF9F, size: 0x8, addend: 0x0, symName: __ZNSt3__117__compressed_pairINS_12basic_stringIcNS_11char_traitsIcEENS_9allocatorIcEEE5__repES5_EC1B7v160006INS_18__default_init_tagESA_EEOT_OT0_, symObjAddr: 0x3C8C, symBinAddr: 0x10000736C, symSize: 0x3C }
  - { offsetInCU: 0xDFF7, offset: 0xDFF7, size: 0x8, addend: 0x0, symName: __ZNSt3__117__compressed_pairINS_12basic_stringIcNS_11char_traitsIcEENS_9allocatorIcEEE5__repES5_EC2B7v160006INS_18__default_init_tagESA_EEOT_OT0_, symObjAddr: 0x3CD8, symBinAddr: 0x1000073B8, symSize: 0x3C }
  - { offsetInCU: 0xE04F, offset: 0xE04F, size: 0x8, addend: 0x0, symName: __ZNSt3__122__compressed_pair_elemINS_12basic_stringIcNS_11char_traitsIcEENS_9allocatorIcEEE5__repELi0ELb0EEC2B7v160006ENS_18__default_init_tagE, symObjAddr: 0x3D14, symBinAddr: 0x1000073F4, symSize: 0x14 }
  - { offsetInCU: 0xE084, offset: 0xE084, size: 0x8, addend: 0x0, symName: __ZNSt3__122__compressed_pair_elemINS_9allocatorIcEELi1ELb1EEC2B7v160006ENS_18__default_init_tagE, symObjAddr: 0x3D28, symBinAddr: 0x100007408, symSize: 0x2C }
  - { offsetInCU: 0xE0B9, offset: 0xE0B9, size: 0x8, addend: 0x0, symName: __ZNSt3__19allocatorIcEC2B7v160006Ev, symObjAddr: 0x3D54, symBinAddr: 0x100007434, symSize: 0x2C }
  - { offsetInCU: 0xE0E3, offset: 0xE0E3, size: 0x8, addend: 0x0, symName: __ZNSt3__116__non_trivial_ifILb1ENS_9allocatorIcEEEC2B7v160006Ev, symObjAddr: 0x3D80, symBinAddr: 0x100007460, symSize: 0x14 }
  - { offsetInCU: 0xE10D, offset: 0xE10D, size: 0x8, addend: 0x0, symName: __ZNSt3__112basic_stringIcNS_11char_traitsIcEENS_9allocatorIcEEE13__get_pointerB7v160006Ev, symObjAddr: 0x3DA8, symBinAddr: 0x100007488, symSize: 0x54 }
  - { offsetInCU: 0xE133, offset: 0xE133, size: 0x8, addend: 0x0, symName: __ZNKSt3__112basic_stringIcNS_11char_traitsIcEENS_9allocatorIcEEE9__is_longB7v160006Ev, symObjAddr: 0x3DFC, symBinAddr: 0x1000074DC, symSize: 0x38 }
  - { offsetInCU: 0xE159, offset: 0xE159, size: 0x8, addend: 0x0, symName: __ZNSt3__112basic_stringIcNS_11char_traitsIcEENS_9allocatorIcEEE18__get_long_pointerB7v160006Ev, symObjAddr: 0x3E34, symBinAddr: 0x100007514, symSize: 0x28 }
  - { offsetInCU: 0xE17F, offset: 0xE17F, size: 0x8, addend: 0x0, symName: __ZNSt3__112basic_stringIcNS_11char_traitsIcEENS_9allocatorIcEEE19__get_short_pointerB7v160006Ev, symObjAddr: 0x3E5C, symBinAddr: 0x10000753C, symSize: 0x28 }
  - { offsetInCU: 0xE1A5, offset: 0xE1A5, size: 0x8, addend: 0x0, symName: __ZNKSt3__117__compressed_pairINS_12basic_stringIcNS_11char_traitsIcEENS_9allocatorIcEEE5__repES5_E5firstB7v160006Ev, symObjAddr: 0x3E84, symBinAddr: 0x100007564, symSize: 0x24 }
  - { offsetInCU: 0xE1CB, offset: 0xE1CB, size: 0x8, addend: 0x0, symName: __ZNKSt3__122__compressed_pair_elemINS_12basic_stringIcNS_11char_traitsIcEENS_9allocatorIcEEE5__repELi0ELb0EE5__getB7v160006Ev, symObjAddr: 0x3EA8, symBinAddr: 0x100007588, symSize: 0x14 }
  - { offsetInCU: 0xE1F1, offset: 0xE1F1, size: 0x8, addend: 0x0, symName: __ZNSt3__117__compressed_pairINS_12basic_stringIcNS_11char_traitsIcEENS_9allocatorIcEEE5__repES5_E5firstB7v160006Ev, symObjAddr: 0x3EBC, symBinAddr: 0x10000759C, symSize: 0x24 }
  - { offsetInCU: 0xE217, offset: 0xE217, size: 0x8, addend: 0x0, symName: __ZNSt3__122__compressed_pair_elemINS_12basic_stringIcNS_11char_traitsIcEENS_9allocatorIcEEE5__repELi0ELb0EE5__getB7v160006Ev, symObjAddr: 0x3EE0, symBinAddr: 0x1000075C0, symSize: 0x14 }
  - { offsetInCU: 0xE23D, offset: 0xE23D, size: 0x8, addend: 0x0, symName: __ZNSt3__114pointer_traitsIPcE10pointer_toB7v160006ERc, symObjAddr: 0x3EF4, symBinAddr: 0x1000075D4, symSize: 0x14 }
  - { offsetInCU: 0xE260, offset: 0xE260, size: 0x8, addend: 0x0, symName: __ZNSt3__119ostreambuf_iteratorIcNS_11char_traitsIcEEEC2B7v160006ERNS_13basic_ostreamIcS2_EE, symObjAddr: 0x3F08, symBinAddr: 0x1000075E8, symSize: 0x54 }
  - { offsetInCU: 0xE298, offset: 0xE298, size: 0x8, addend: 0x0, symName: __ZNKSt3__19basic_iosIcNS_11char_traitsIcEEE5rdbufB7v160006Ev, symObjAddr: 0x3F5C, symBinAddr: 0x10000763C, symSize: 0x24 }
  - { offsetInCU: 0xE2C0, offset: 0xE2C0, size: 0x8, addend: 0x0, symName: __ZNKSt3__18ios_base5rdbufB7v160006Ev, symObjAddr: 0x3F80, symBinAddr: 0x100007660, symSize: 0x18 }
  - { offsetInCU: 0xE2E6, offset: 0xE2E6, size: 0x8, addend: 0x0, symName: __ZNSt3__111char_traitsIcE11eq_int_typeEii, symObjAddr: 0x3F98, symBinAddr: 0x100007678, symSize: 0x28 }
  - { offsetInCU: 0xE317, offset: 0xE317, size: 0x8, addend: 0x0, symName: __ZNSt3__111char_traitsIcE3eofEv, symObjAddr: 0x3FC0, symBinAddr: 0x1000076A0, symSize: 0x8 }
  - { offsetInCU: 0xE32B, offset: 0xE32B, size: 0x8, addend: 0x0, symName: __ZNKSt3__19basic_iosIcNS_11char_traitsIcEEE5widenB7v160006Ec, symObjAddr: 0x3FC8, symBinAddr: 0x1000076A8, symSize: 0x84 }
  - { offsetInCU: 0xE399, offset: 0xE399, size: 0x8, addend: 0x0, symName: __ZNKSt3__15ctypeIcE5widenB7v160006Ec, symObjAddr: 0x4078, symBinAddr: 0x100007758, symSize: 0x38 }
  - { offsetInCU: 0xE3CE, offset: 0xE3CE, size: 0x8, addend: 0x0, symName: __ZNSt3__18ios_base8setstateB7v160006Ej, symObjAddr: 0x40B0, symBinAddr: 0x100007790, symSize: 0x34 }
...
